target datalayout = "e-m:e-p270:32:32-p271:32:32-p272:64:64-i64:64-i128:128-f80:128-n8:16:32:64-S128"
target triple = "x86_64-pc-linux-gnu"

%struct.CPpmd7z_RangeEnc = type { i64, i32, i8, i64, ptr }

; Function Attrs: nounwind uwtable
define internal void @Ppmd7z_RangeEnc_Init(ptr noundef %0) #0 {
  %2 = alloca ptr, align 8
  store ptr %0, ptr %2, align 8, !tbaa !4
  %3 = load ptr, ptr %2, align 8, !tbaa !4
  %4 = getelementptr inbounds nuw %struct.CPpmd7z_RangeEnc, ptr %3, i32 0, i32 0
  store i64 0, ptr %4, align 8, !tbaa !72
  %5 = load ptr, ptr %2, align 8, !tbaa !4
  %6 = getelementptr inbounds nuw %struct.CPpmd7z_RangeEnc, ptr %5, i32 0, i32 1
  store i32 -1, ptr %6, align 8, !tbaa !75
  %7 = load ptr, ptr %2, align 8, !tbaa !4
  %8 = getelementptr inbounds nuw %struct.CPpmd7z_RangeEnc, ptr %7, i32 0, i32 2
  store i8 0, ptr %8, align 4, !tbaa !76
  %9 = load ptr, ptr %2, align 8, !tbaa !4
  %10 = getelementptr inbounds nuw %struct.CPpmd7z_RangeEnc, ptr %9, i32 0, i32 3
  store i64 1, ptr %10, align 8, !tbaa !77
  ret void
}