; Function Attrs: mustprogress nofree norecurse nosync nounwind willreturn memory(argmem: write) uwtable
define internal void @Ppmd7z_RangeEnc_Init(ptr noundef writeonly captures(none) initializes((0, 13), (16, 24)) %0) #3 {
  store i64 0, ptr %0, align 8, !tbaa !75
  %2 = getelementptr inbounds nuw i8, ptr %0, i64 8
  store i32 -1, ptr %2, align 8, !tbaa !78
  %3 = getelementptr inbounds nuw i8, ptr %0, i64 12
  store i8 0, ptr %3, align 4, !tbaa !79
  %4 = getelementptr inbounds nuw i8, ptr %0, i64 16
  store i64 1, ptr %4, align 8, !tbaa !80
  ret void
}